target datalayout = "e-m:e-p270:32:32-p271:32:32-p272:64:64-i64:64-i128:128-f80:128-n8:16:32:64-S128"
target triple = "x86_64-pc-linux-gnu"

%"struct.cv::utils::trace::details::Region::LocationExtraData" = type { i32, ptr, ptr }
%"struct.cv::utils::trace::details::Region::LocationStaticStorage" = type { ptr, ptr, ptr, i32, i32 }

@_ZZN2cv5utils5trace7details6Region17LocationExtraDataC1ERKNS3_21LocationStaticStorageEE21g_location_id_counter = internal global i32 0, align 4
@__itt_string_handle_create_ptr__3_0 = external global ptr, align 8

; Function Attrs: mustprogress uwtable
define void @_ZN2cv5utils5trace7details6Region17LocationExtraDataC2ERKNS3_21LocationStaticStorageE(ptr noundef nonnull align 8 dereferenceable(24) %0, ptr noundef nonnull align 8 dereferenceable(32) %1) unnamed_addr #4 align 2 {
  %3 = alloca ptr, align 8
  %4 = alloca ptr, align 8
  %5 = alloca i32, align 4
  %6 = alloca i32, align 4
  store ptr %0, ptr %3, align 8, !tbaa !9
  store ptr %1, ptr %4, align 8, !tbaa !12
  %7 = load ptr, ptr %3, align 8
  store i32 1, ptr %5, align 4, !tbaa !3
  %8 = load i32, ptr %5, align 4
  %9 = atomicrmw add ptr @_ZZN2cv5utils5trace7details6Region17LocationExtraDataC1ERKNS3_21LocationStaticStorageEE21g_location_id_counter, i32 %8 acq_rel, align 4
  store i32 %9, ptr %6, align 4
  %10 = load i32, ptr %6, align 4, !tbaa !3
  %11 = add nsw i32 %10, 1
  %12 = getelementptr inbounds nuw %"struct.cv::utils::trace::details::Region::LocationExtraData", ptr %7, i32 0, i32 0
  store i32 %11, ptr %12, align 8, !tbaa !14
  %13 = call noundef zeroext i1 @_ZN2cv5utils5trace7detailsL12isITTEnabledEv()
  br i1 %13, label %14, label %39

14:                                               ; preds = %2
  %15 = load ptr, ptr @__itt_string_handle_create_ptr__3_0, align 8, !tbaa !17
  %16 = icmp ne ptr %15, null
  br i1 %16, label %18, label %17

17:                                               ; preds = %14
  br label %24

18:                                               ; preds = %14
  %19 = load ptr, ptr @__itt_string_handle_create_ptr__3_0, align 8, !tbaa !17
  %20 = load ptr, ptr %4, align 8, !tbaa !12
  %21 = getelementptr inbounds nuw %"struct.cv::utils::trace::details::Region::LocationStaticStorage", ptr %20, i32 0, i32 1
  %22 = load ptr, ptr %21, align 8, !tbaa !18
  %23 = call ptr %19(ptr noundef %22)
  br label %24

24:                                               ; preds = %18, %17
  %25 = phi ptr [ null, %17 ], [ %23, %18 ]
  %26 = getelementptr inbounds nuw %"struct.cv::utils::trace::details::Region::LocationExtraData", ptr %7, i32 0, i32 1
  store volatile ptr %25, ptr %26, align 8, !tbaa !23
  %27 = load ptr, ptr @__itt_string_handle_create_ptr__3_0, align 8, !tbaa !17
  %28 = icmp ne ptr %27, null
  br i1 %28, label %30, label %29

29:                                               ; preds = %24
  br label %36

30:                                               ; preds = %24
  %31 = load ptr, ptr @__itt_string_handle_create_ptr__3_0, align 8, !tbaa !17
  %32 = load ptr, ptr %4, align 8, !tbaa !12
  %33 = getelementptr inbounds nuw %"struct.cv::utils::trace::details::Region::LocationStaticStorage", ptr %32, i32 0, i32 2
  %34 = load ptr, ptr %33, align 8, !tbaa !24
  %35 = call ptr %31(ptr noundef %34)
  br label %36

36:                                               ; preds = %30, %29
  %37 = phi ptr [ null, %29 ], [ %35, %30 ]
  %38 = getelementptr inbounds nuw %"struct.cv::utils::trace::details::Region::LocationExtraData", ptr %7, i32 0, i32 2
  store volatile ptr %37, ptr %38, align 8, !tbaa !25
  br label %42

39:                                               ; preds = %2
  %40 = getelementptr inbounds nuw %"struct.cv::utils::trace::details::Region::LocationExtraData", ptr %7, i32 0, i32 1
  store volatile ptr null, ptr %40, align 8, !tbaa !23
  %41 = getelementptr inbounds nuw %"struct.cv::utils::trace::details::Region::LocationExtraData", ptr %7, i32 0, i32 2
  store volatile ptr null, ptr %41, align 8, !tbaa !25
  br label %42

42:                                               ; preds = %39, %36
  ret void
}