; Function Attrs: mustprogress uwtable
define void @_ZN2cv5utils5trace7details6Region17LocationExtraDataC2ERKNS3_21LocationStaticStorageE(ptr noundef nonnull align 8 dereferenceable(24) initializes((0, 4)) %0, ptr noundef nonnull readonly align 8 captures(none) dereferenceable(32) %1) unnamed_addr #3 align 2 {
  %3 = atomicrmw add ptr @_ZZN2cv5utils5trace7details6Region17LocationExtraDataC1ERKNS3_21LocationStaticStorageEE21g_location_id_counter, i32 1 acq_rel, align 4
  %4 = add nsw i32 %3, 1
  store i32 %4, ptr %0, align 8, !tbaa !3
  %5 = tail call fastcc noundef zeroext i1 @_ZN2cv5utils5trace7detailsL12isITTEnabledEv()
  br i1 %5, label %6, label %18

6:                                                ; preds = %2
  %7 = load ptr, ptr @__itt_string_handle_create_ptr__3_0, align 8, !tbaa !10
  %.not = icmp eq ptr %7, null
  br i1 %.not, label %.thread, label %9

.thread:                                          ; preds = %6
  %8 = getelementptr inbounds nuw i8, ptr %0, i64 8
  store volatile ptr null, ptr %8, align 8, !tbaa !11
  br label %20

9:                                                ; preds = %6
  %10 = getelementptr inbounds nuw i8, ptr %1, i64 8
  %11 = load ptr, ptr %10, align 8, !tbaa !12
  %12 = tail call ptr %7(ptr noundef %11)
  %.pr = load ptr, ptr @__itt_string_handle_create_ptr__3_0, align 8, !tbaa !10
  %13 = getelementptr inbounds nuw i8, ptr %0, i64 8
  store volatile ptr %12, ptr %13, align 8, !tbaa !11
  %.not5 = icmp eq ptr %.pr, null
  br i1 %.not5, label %20, label %14

14:                                               ; preds = %9
  %15 = getelementptr inbounds nuw i8, ptr %1, i64 16
  %16 = load ptr, ptr %15, align 8, !tbaa !17
  %17 = tail call ptr %.pr(ptr noundef %16)
  br label %20

18:                                               ; preds = %2
  %19 = getelementptr inbounds nuw i8, ptr %0, i64 8
  store volatile ptr null, ptr %19, align 8, !tbaa !11
  br label %20

20:                                               ; preds = %14, %9, %.thread, %18
  %.sink = phi ptr [ null, %18 ], [ %17, %14 ], [ null, %9 ], [ null, %.thread ]
  %21 = getelementptr inbounds nuw i8, ptr %0, i64 16
  store volatile ptr %.sink, ptr %21, align 8, !tbaa !18
  ret void
}